; Function Attrs: mustprogress nofree norecurse nosync nounwind willreturn memory(read, inaccessiblemem: none) uwtable
define dso_local noundef i64 @_ZNK3igl6opengl4glfw6Viewer10core_indexEi(ptr noundef nonnull readonly align 16 captures(none) dereferenceable(616) %0, i32 noundef %1) local_unnamed_addr #4 align 2 {
  %3 = getelementptr inbounds nuw i8, ptr %0, i64 56
  %4 = getelementptr inbounds nuw i8, ptr %0, i64 64
  %5 = load ptr, ptr %4, align 16, !tbaa !62
  %6 = load ptr, ptr %3, align 8, !tbaa !63
  %.not9.not = icmp eq ptr %5, %6
  br i1 %.not9.not, label %._crit_edge, label %.lr.ph.preheader

.lr.ph.preheader:                                 ; preds = %2
  %7 = ptrtoint ptr %5 to i64
  %8 = ptrtoint ptr %6 to i64
  %9 = sub i64 %7, %8
  %10 = sdiv exact i64 %9, 544
  %umax = tail call i64 @llvm.umax.i64(i64 %10, i64 1)
  br label %.lr.ph

.lr.ph:                                           ; preds = %.lr.ph.preheader, %14
  %.0710 = phi i64 [ %15, %14 ], [ 0, %.lr.ph.preheader ]
  %11 = getelementptr inbounds nuw %"class.igl::opengl::ViewerCore", ptr %6, i64 %.0710
  %12 = load i32, ptr %11, align 16, !tbaa !113
  %13 = icmp eq i32 %12, %1
  br i1 %13, label %._crit_edge, label %14

14:                                               ; preds = %.lr.ph
  %15 = add nuw i64 %.0710, 1
  %exitcond.not = icmp eq i64 %15, %umax
  br i1 %exitcond.not, label %._crit_edge, label %.lr.ph, !llvm.loop !120

._crit_edge:                                      ; preds = %14, %.lr.ph, %2
  %spec.select = phi i64 [ 0, %2 ], [ %.0710, %.lr.ph ], [ 0, %14 ]
  ret i64 %spec.select
}